; Function Attrs: mustprogress uwtable
define hidden noundef i32 @_ZN4ncnn26DeconvolutionDepthWise_x8616destroy_pipelineERKNS_6OptionE(ptr noundef nonnull align 8 captures(none) dereferenceable(608) %0, ptr noundef nonnull align 8 dereferenceable(64) %1) unnamed_addr #2 align 2 personality ptr @__gxx_personality_v0 {
  %3 = getelementptr inbounds nuw i8, ptr %0, i64 512
  %4 = getelementptr inbounds nuw i8, ptr %0, i64 520
  %5 = load ptr, ptr %4, align 8, !tbaa !62
  %6 = load ptr, ptr %3, align 8, !tbaa !18
  %7 = ptrtoint ptr %5 to i64
  %8 = ptrtoint ptr %6 to i64
  %9 = sub i64 %7, %8
  %10 = lshr exact i64 %9, 3
  %11 = trunc i64 %10 to i32
  %12 = icmp sgt i32 %11, 0
  br i1 %12, label %.lr.ph, label %._crit_edge

._crit_edge:                                      ; preds = %29, %2
  %.lcssa6 = phi ptr [ %5, %2 ], [ %31, %29 ]
  %.lcssa = phi ptr [ %6, %2 ], [ %30, %29 ]
  %.not.i.i = icmp eq ptr %.lcssa6, %.lcssa
  br i1 %.not.i.i, label %_ZNSt6vectorIPN4ncnn5LayerESaIS2_EE5clearEv.exit, label %13

13:                                               ; preds = %._crit_edge
  store ptr %.lcssa, ptr %4, align 8, !tbaa !62
  br label %_ZNSt6vectorIPN4ncnn5LayerESaIS2_EE5clearEv.exit

_ZNSt6vectorIPN4ncnn5LayerESaIS2_EE5clearEv.exit: ; preds = %._crit_edge, %13
  ret i32 0

.lr.ph:                                           ; preds = %2, %29
  %indvars.iv = phi i64 [ %indvars.iv.next, %29 ], [ 0, %2 ]
  %14 = phi ptr [ %30, %29 ], [ %6, %2 ]
  %15 = getelementptr inbounds nuw ptr, ptr %14, i64 %indvars.iv
  %16 = load ptr, ptr %15, align 8, !tbaa !63
  %17 = load ptr, ptr %16, align 8, !tbaa !4
  %18 = getelementptr inbounds nuw i8, ptr %17, i64 40
  %19 = load ptr, ptr %18, align 8
  %20 = tail call noundef i32 %19(ptr noundef nonnull align 8 dereferenceable(208) %16, ptr noundef nonnull align 8 dereferenceable(64) %1)
  %21 = load ptr, ptr %3, align 8, !tbaa !18
  %22 = getelementptr inbounds nuw ptr, ptr %21, i64 %indvars.iv
  %23 = load ptr, ptr %22, align 8, !tbaa !63
  %24 = icmp eq ptr %23, null
  br i1 %24, label %29, label %25

25:                                               ; preds = %.lr.ph
  %26 = load ptr, ptr %23, align 8, !tbaa !4
  %27 = getelementptr inbounds nuw i8, ptr %26, i64 8
  %28 = load ptr, ptr %27, align 8
  tail call void %28(ptr noundef nonnull align 8 dereferenceable(208) %23) #13
  %.pre = load ptr, ptr %3, align 8, !tbaa !18
  br label %29

29:                                               ; preds = %.lr.ph, %25
  %30 = phi ptr [ %21, %.lr.ph ], [ %.pre, %25 ]
  %indvars.iv.next = add nuw nsw i64 %indvars.iv, 1
  %31 = load ptr, ptr %4, align 8, !tbaa !62
  %32 = ptrtoint ptr %31 to i64
  %33 = ptrtoint ptr %30 to i64
  %34 = sub i64 %32, %33
  %sext = shl i64 %34, 29
  %35 = ashr i64 %sext, 32
  %36 = icmp slt i64 %indvars.iv.next, %35
  br i1 %36, label %.lr.ph, label %._crit_edge, !llvm.loop !65
}